
004_inline_1.elf:     file format elf32-littlearm

Sections:
Idx Name          Size      VMA       LMA       File off  Algn
  0 .isr_vector   000001ac  08000000  08000000  00010000  2**0
                  CONTENTS, ALLOC, LOAD, READONLY, DATA
  1 .text         00000cc8  080001ac  080001ac  000101ac  2**2
                  CONTENTS, ALLOC, LOAD, READONLY, CODE
  2 .rodata       00000080  08000e74  08000e74  00010e74  2**2
                  CONTENTS, ALLOC, LOAD, READONLY, DATA
  3 .ARM.extab    00000000  08000ef4  08000ef4  0002006c  2**0
                  CONTENTS
  4 .ARM          00000000  08000ef4  08000ef4  0002006c  2**0
                  CONTENTS
  5 .preinit_array 00000000  08000ef4  08000ef4  0002006c  2**0
                  CONTENTS, ALLOC, LOAD, DATA
  6 .init_array   00000004  08000ef4  08000ef4  00010ef4  2**2
                  CONTENTS, ALLOC, LOAD, DATA
  7 .fini_array   00000004  08000ef8  08000ef8  00010ef8  2**2
                  CONTENTS, ALLOC, LOAD, DATA
  8 .data         0000006c  20000000  08000efc  00020000  2**2
                  CONTENTS, ALLOC, LOAD, DATA
  9 .bss          000000e4  2000006c  08000f68  0002006c  2**2
                  ALLOC
 10 ._user_heap_stack 00000600  20000150  08000f68  00020150  2**0
                  ALLOC
 11 .ARM.attributes 0000002a  00000000  00000000  0002006c  2**0
                  CONTENTS, READONLY
 12 .debug_info   00000b30  00000000  00000000  00020096  2**0
                  CONTENTS, READONLY, DEBUGGING, OCTETS
 13 .debug_abbrev 00000247  00000000  00000000  00020bc6  2**0
                  CONTENTS, READONLY, DEBUGGING, OCTETS
 14 .debug_aranges 00000068  00000000  00000000  00020e10  2**3
                  CONTENTS, READONLY, DEBUGGING, OCTETS
 15 .debug_ranges 00000040  00000000  00000000  00020e78  2**3
                  CONTENTS, READONLY, DEBUGGING, OCTETS
 16 .debug_macro  00001881  00000000  00000000  00020eb8  2**0
                  CONTENTS, READONLY, DEBUGGING, OCTETS
 17 .debug_line   00000912  00000000  00000000  00022739  2**0
                  CONTENTS, READONLY, DEBUGGING, OCTETS
 18 .debug_str    0000608c  00000000  00000000  0002304b  2**0
                  CONTENTS, READONLY, DEBUGGING, OCTETS
 19 .comment      00000053  00000000  00000000  000290d7  2**0
                  CONTENTS, READONLY
 20 .debug_frame  0000097c  00000000  00000000  0002912c  2**2
                  CONTENTS, READONLY, DEBUGGING, OCTETS

Disassembly of section .text:

080001ac <__do_global_dtors_aux>:
 80001ac:	b510      	push	{r4, lr}
 80001ae:	4c05      	ldr	r4, [pc, #20]	; (80001c4 <__do_global_dtors_aux+0x18>)
 80001b0:	7823      	ldrb	r3, [r4, #0]
 80001b2:	b933      	cbnz	r3, 80001c2 <__do_global_dtors_aux+0x16>
 80001b4:	4b04      	ldr	r3, [pc, #16]	; (80001c8 <__do_global_dtors_aux+0x1c>)
 80001b6:	b113      	cbz	r3, 80001be <__do_global_dtors_aux+0x12>
 80001b8:	4804      	ldr	r0, [pc, #16]	; (80001cc <__do_global_dtors_aux+0x20>)
 80001ba:	f3af 8000 	nop.w
 80001be:	2301      	movs	r3, #1
 80001c0:	7023      	strb	r3, [r4, #0]
 80001c2:	bd10      	pop	{r4, pc}
 80001c4:	2000006c 	.word	0x2000006c
 80001c8:	00000000 	.word	0x00000000
 80001cc:	08000e5c 	.word	0x08000e5c

080001d0 <frame_dummy>:
 80001d0:	b508      	push	{r3, lr}
 80001d2:	4b03      	ldr	r3, [pc, #12]	; (80001e0 <frame_dummy+0x10>)
 80001d4:	b11b      	cbz	r3, 80001de <frame_dummy+0xe>
 80001d6:	4903      	ldr	r1, [pc, #12]	; (80001e4 <frame_dummy+0x14>)
 80001d8:	4803      	ldr	r0, [pc, #12]	; (80001e8 <frame_dummy+0x18>)
 80001da:	f3af 8000 	nop.w
 80001de:	bd08      	pop	{r3, pc}
 80001e0:	00000000 	.word	0x00000000
 80001e4:	20000070 	.word	0x20000070
 80001e8:	08000e5c 	.word	0x08000e5c

080001ec <strlen>:
 80001ec:	4603      	mov	r3, r0
 80001ee:	f813 2b01 	ldrb.w	r2, [r3], #1
 80001f2:	2a00      	cmp	r2, #0
 80001f4:	d1fb      	bne.n	80001ee <strlen+0x2>
 80001f6:	1a18      	subs	r0, r3, r0
 80001f8:	3801      	subs	r0, #1
 80001fa:	4770      	bx	lr

080001fc <main>:

/* Function Prototype(s) */
extern void initialise_monitor_handles(void) ;									// Debugger

int main(void)
{
 80001fc:	b580      	push	{r7, lr}
 80001fe:	b086      	sub	sp, #24
 8000200:	af00      	add	r7, sp, #0
	initialise_monitor_handles() ;												// Debugger
 8000202:	f000 fac5 	bl	8000790 <initialise_monitor_handles>
	__asm volatile ("ADD R0, R0, R1") ;											// Load register R0 with the sum of R0 and R1
	__asm volatile ("STR R0, [R2]") ;											// Store the result into the memory location of R2
#endif

	int val ;
	val = 50 ;
 8000206:	2332      	movs	r3, #50	; 0x32
 8000208:	617b      	str	r3, [r7, #20]
	__asm volatile ("MOV R0, %0" : : "r"(val)  : ) ;							// Constraint 'r' tells the compiler to use a general register.
 800020a:	697b      	ldr	r3, [r7, #20]
 800020c:	4618      	mov	r0, r3
	__asm volatile ("MOV R0, %0" : : "r"(0x50) : ) ;
#endif

	int control_reg ;
	// Read CONTROL register to control_reg
	__asm volatile ("MRS %0, CONTROL" : "=r"(control_reg) ) ;
 800020e:	f3ef 8314 	mrs	r3, CONTROL
 8000212:	613b      	str	r3, [r7, #16]

	/* Exercise 3 */
	int var1 ;
	int var2 ;
	var1 = 10 ;
 8000214:	230a      	movs	r3, #10
 8000216:	60fb      	str	r3, [r7, #12]
	__asm ("MOV %0, %1" : "=r" (var2) : "r" (var1)) ;
 8000218:	68fb      	ldr	r3, [r7, #12]
 800021a:	461b      	mov	r3, r3
 800021c:	60bb      	str	r3, [r7, #8]

	/* Exercise 4 */
	// This is essentially a memory read. p1 reads the contents of pointer *p2
	int p1 ;
	int *p2 ;
	p2 = (int*) 0x20000008 ;
 800021e:	4b03      	ldr	r3, [pc, #12]	; (800022c <main+0x30>)
 8000220:	607b      	str	r3, [r7, #4]
	__asm volatile ("LDR %0, [%1]" : "=r" (p1): "r"(p2)) ;						// p1 = *p2
 8000222:	687b      	ldr	r3, [r7, #4]
 8000224:	681b      	ldr	r3, [r3, #0]
 8000226:	603b      	str	r3, [r7, #0]

    /* Loop forever */
	for(;;);
 8000228:	e7fe      	b.n	8000228 <main+0x2c>
 800022a:	bf00      	nop
 800022c:	20000008 	.word	0x20000008

08000230 <_sbrk>:
 *
 * @param incr Memory size
 * @return Pointer to allocated memory
 */
void *_sbrk(ptrdiff_t incr)
{
 8000230:	b580      	push	{r7, lr}
 8000232:	b086      	sub	sp, #24
 8000234:	af00      	add	r7, sp, #0
 8000236:	6078      	str	r0, [r7, #4]
  extern uint8_t _end; /* Symbol defined in the linker script */
  extern uint8_t _estack; /* Symbol defined in the linker script */
  extern uint32_t _Min_Stack_Size; /* Symbol defined in the linker script */
  const uint32_t stack_limit = (uint32_t)&_estack - (uint32_t)&_Min_Stack_Size;
 8000238:	4a14      	ldr	r2, [pc, #80]	; (800028c <_sbrk+0x5c>)
 800023a:	4b15      	ldr	r3, [pc, #84]	; (8000290 <_sbrk+0x60>)
 800023c:	1ad3      	subs	r3, r2, r3
 800023e:	617b      	str	r3, [r7, #20]
  const uint8_t *max_heap = (uint8_t *)stack_limit;
 8000240:	697b      	ldr	r3, [r7, #20]
 8000242:	613b      	str	r3, [r7, #16]
  uint8_t *prev_heap_end;

  /* Initialize heap end at first call */
  if (NULL == __sbrk_heap_end)
 8000244:	4b13      	ldr	r3, [pc, #76]	; (8000294 <_sbrk+0x64>)
 8000246:	681b      	ldr	r3, [r3, #0]
 8000248:	2b00      	cmp	r3, #0
 800024a:	d102      	bne.n	8000252 <_sbrk+0x22>
  {
    __sbrk_heap_end = &_end;
 800024c:	4b11      	ldr	r3, [pc, #68]	; (8000294 <_sbrk+0x64>)
 800024e:	4a12      	ldr	r2, [pc, #72]	; (8000298 <_sbrk+0x68>)
 8000250:	601a      	str	r2, [r3, #0]
  }

  /* Protect heap from growing into the reserved MSP stack */
  if (__sbrk_heap_end + incr > max_heap)
 8000252:	4b10      	ldr	r3, [pc, #64]	; (8000294 <_sbrk+0x64>)
 8000254:	681a      	ldr	r2, [r3, #0]
 8000256:	687b      	ldr	r3, [r7, #4]
 8000258:	4413      	add	r3, r2
 800025a:	693a      	ldr	r2, [r7, #16]
 800025c:	429a      	cmp	r2, r3
 800025e:	d207      	bcs.n	8000270 <_sbrk+0x40>
  {
    errno = ENOMEM;
 8000260:	f000 f846 	bl	80002f0 <__errno>
 8000264:	4603      	mov	r3, r0
 8000266:	220c      	movs	r2, #12
 8000268:	601a      	str	r2, [r3, #0]
    return (void *)-1;
 800026a:	f04f 33ff 	mov.w	r3, #4294967295
 800026e:	e009      	b.n	8000284 <_sbrk+0x54>
  }

  prev_heap_end = __sbrk_heap_end;
 8000270:	4b08      	ldr	r3, [pc, #32]	; (8000294 <_sbrk+0x64>)
 8000272:	681b      	ldr	r3, [r3, #0]
 8000274:	60fb      	str	r3, [r7, #12]
  __sbrk_heap_end += incr;
 8000276:	4b07      	ldr	r3, [pc, #28]	; (8000294 <_sbrk+0x64>)
 8000278:	681a      	ldr	r2, [r3, #0]
 800027a:	687b      	ldr	r3, [r7, #4]
 800027c:	4413      	add	r3, r2
 800027e:	4a05      	ldr	r2, [pc, #20]	; (8000294 <_sbrk+0x64>)
 8000280:	6013      	str	r3, [r2, #0]

  return (void *)prev_heap_end;
 8000282:	68fb      	ldr	r3, [r7, #12]
}
 8000284:	4618      	mov	r0, r3
 8000286:	3718      	adds	r7, #24
 8000288:	46bd      	mov	sp, r7
 800028a:	bd80      	pop	{r7, pc}
 800028c:	20030000 	.word	0x20030000
 8000290:	00000400 	.word	0x00000400
 8000294:	20000088 	.word	0x20000088
 8000298:	20000150 	.word	0x20000150

0800029c <Reset_Handler>:

  .section .text.Reset_Handler
  .weak Reset_Handler
  .type Reset_Handler, %function
Reset_Handler:
  ldr   r0, =_estack
 800029c:	480d      	ldr	r0, [pc, #52]	; (80002d4 <LoopForever+0x2>)
  mov   sp, r0          /* set stack pointer */
 800029e:	4685      	mov	sp, r0
/* Call the clock system intitialization function.*/
  bl  SystemInit
 80002a0:	f3af 8000 	nop.w

/* Copy the data segment initializers from flash to SRAM */
  ldr r0, =_sdata
 80002a4:	480c      	ldr	r0, [pc, #48]	; (80002d8 <LoopForever+0x6>)
  ldr r1, =_edata
 80002a6:	490d      	ldr	r1, [pc, #52]	; (80002dc <LoopForever+0xa>)
  ldr r2, =_sidata
 80002a8:	4a0d      	ldr	r2, [pc, #52]	; (80002e0 <LoopForever+0xe>)
  movs r3, #0
 80002aa:	2300      	movs	r3, #0
  b LoopCopyDataInit
 80002ac:	e002      	b.n	80002b4 <LoopCopyDataInit>

080002ae <CopyDataInit>:

CopyDataInit:
  ldr r4, [r2, r3]
 80002ae:	58d4      	ldr	r4, [r2, r3]
  str r4, [r0, r3]
 80002b0:	50c4      	str	r4, [r0, r3]
  adds r3, r3, #4
 80002b2:	3304      	adds	r3, #4

080002b4 <LoopCopyDataInit>:

LoopCopyDataInit:
  adds r4, r0, r3
 80002b4:	18c4      	adds	r4, r0, r3
  cmp r4, r1
 80002b6:	428c      	cmp	r4, r1
  bcc CopyDataInit
 80002b8:	d3f9      	bcc.n	80002ae <CopyDataInit>

/* Zero fill the bss segment. */
  ldr r2, =_sbss
 80002ba:	4a0a      	ldr	r2, [pc, #40]	; (80002e4 <LoopForever+0x12>)
  ldr r4, =_ebss
 80002bc:	4c0a      	ldr	r4, [pc, #40]	; (80002e8 <LoopForever+0x16>)
  movs r3, #0
 80002be:	2300      	movs	r3, #0
  b LoopFillZerobss
 80002c0:	e001      	b.n	80002c6 <LoopFillZerobss>

080002c2 <FillZerobss>:

FillZerobss:
  str  r3, [r2]
 80002c2:	6013      	str	r3, [r2, #0]
  adds r2, r2, #4
 80002c4:	3204      	adds	r2, #4

080002c6 <LoopFillZerobss>:

LoopFillZerobss:
  cmp r2, r4
 80002c6:	42a2      	cmp	r2, r4
  bcc FillZerobss
 80002c8:	d3fb      	bcc.n	80002c2 <FillZerobss>

/* Call static constructors */
  bl __libc_init_array
 80002ca:	f000 f817 	bl	80002fc <__libc_init_array>
/* Call the application's entry point.*/
  bl main
 80002ce:	f7ff ff95 	bl	80001fc <main>

080002d2 <LoopForever>:

LoopForever:
    b LoopForever
 80002d2:	e7fe      	b.n	80002d2 <LoopForever>
  ldr   r0, =_estack
 80002d4:	20030000 	.word	0x20030000
  ldr r0, =_sdata
 80002d8:	20000000 	.word	0x20000000
  ldr r1, =_edata
 80002dc:	2000006c 	.word	0x2000006c
  ldr r2, =_sidata
 80002e0:	08000efc 	.word	0x08000efc
  ldr r2, =_sbss
 80002e4:	2000006c 	.word	0x2000006c
  ldr r4, =_ebss
 80002e8:	20000150 	.word	0x20000150

080002ec <ADC_IRQHandler>:
 * @retval : None
*/
  .section .text.Default_Handler,"ax",%progbits
Default_Handler:
Infinite_Loop:
  b Infinite_Loop
 80002ec:	e7fe      	b.n	80002ec <ADC_IRQHandler>
	...

080002f0 <__errno>:
 80002f0:	4b01      	ldr	r3, [pc, #4]	; (80002f8 <__errno+0x8>)
 80002f2:	6818      	ldr	r0, [r3, #0]
 80002f4:	4770      	bx	lr
 80002f6:	bf00      	nop
 80002f8:	20000000 	.word	0x20000000

080002fc <__libc_init_array>:
 80002fc:	b570      	push	{r4, r5, r6, lr}
 80002fe:	4d0d      	ldr	r5, [pc, #52]	; (8000334 <__libc_init_array+0x38>)
 8000300:	4c0d      	ldr	r4, [pc, #52]	; (8000338 <__libc_init_array+0x3c>)
 8000302:	1b64      	subs	r4, r4, r5
 8000304:	10a4      	asrs	r4, r4, #2
 8000306:	2600      	movs	r6, #0
 8000308:	42a6      	cmp	r6, r4
 800030a:	d109      	bne.n	8000320 <__libc_init_array+0x24>
 800030c:	4d0b      	ldr	r5, [pc, #44]	; (800033c <__libc_init_array+0x40>)
 800030e:	4c0c      	ldr	r4, [pc, #48]	; (8000340 <__libc_init_array+0x44>)
 8000310:	f000 fda4 	bl	8000e5c <_init>
 8000314:	1b64      	subs	r4, r4, r5
 8000316:	10a4      	asrs	r4, r4, #2
 8000318:	2600      	movs	r6, #0
 800031a:	42a6      	cmp	r6, r4
 800031c:	d105      	bne.n	800032a <__libc_init_array+0x2e>
 800031e:	bd70      	pop	{r4, r5, r6, pc}
 8000320:	f855 3b04 	ldr.w	r3, [r5], #4
 8000324:	4798      	blx	r3
 8000326:	3601      	adds	r6, #1
 8000328:	e7ee      	b.n	8000308 <__libc_init_array+0xc>
 800032a:	f855 3b04 	ldr.w	r3, [r5], #4
 800032e:	4798      	blx	r3
 8000330:	3601      	adds	r6, #1
 8000332:	e7f2      	b.n	800031a <__libc_init_array+0x1e>
 8000334:	08000ef4 	.word	0x08000ef4
 8000338:	08000ef4 	.word	0x08000ef4
 800033c:	08000ef4 	.word	0x08000ef4
 8000340:	08000ef8 	.word	0x08000ef8

08000344 <memset>:
 8000344:	4402      	add	r2, r0
 8000346:	4603      	mov	r3, r0
 8000348:	4293      	cmp	r3, r2
 800034a:	d100      	bne.n	800034e <memset+0xa>
 800034c:	4770      	bx	lr
 800034e:	f803 1b01 	strb.w	r1, [r3], #1
 8000352:	e7f9      	b.n	8000348 <memset+0x4>

08000354 <findslot>:
 8000354:	4b0a      	ldr	r3, [pc, #40]	; (8000380 <findslot+0x2c>)
 8000356:	b510      	push	{r4, lr}
 8000358:	4604      	mov	r4, r0
 800035a:	6818      	ldr	r0, [r3, #0]
 800035c:	b118      	cbz	r0, 8000366 <findslot+0x12>
 800035e:	6983      	ldr	r3, [r0, #24]
 8000360:	b90b      	cbnz	r3, 8000366 <findslot+0x12>
 8000362:	f000 facb 	bl	80008fc <__sinit>
 8000366:	2c13      	cmp	r4, #19
 8000368:	d807      	bhi.n	800037a <findslot+0x26>
 800036a:	4806      	ldr	r0, [pc, #24]	; (8000384 <findslot+0x30>)
 800036c:	f850 2034 	ldr.w	r2, [r0, r4, lsl #3]
 8000370:	3201      	adds	r2, #1
 8000372:	d002      	beq.n	800037a <findslot+0x26>
 8000374:	eb00 00c4 	add.w	r0, r0, r4, lsl #3
 8000378:	bd10      	pop	{r4, pc}
 800037a:	2000      	movs	r0, #0
 800037c:	e7fc      	b.n	8000378 <findslot+0x24>
 800037e:	bf00      	nop
 8000380:	20000000 	.word	0x20000000
 8000384:	20000098 	.word	0x20000098

08000388 <checkerror>:
 8000388:	b5f8      	push	{r3, r4, r5, r6, r7, lr}
 800038a:	1c43      	adds	r3, r0, #1
 800038c:	4604      	mov	r4, r0
 800038e:	d109      	bne.n	80003a4 <checkerror+0x1c>
 8000390:	f7ff ffae 	bl	80002f0 <__errno>
 8000394:	2613      	movs	r6, #19
 8000396:	4605      	mov	r5, r0
 8000398:	2700      	movs	r7, #0
 800039a:	4630      	mov	r0, r6
 800039c:	4639      	mov	r1, r7
 800039e:	beab      	bkpt	0x00ab
 80003a0:	4606      	mov	r6, r0
 80003a2:	602e      	str	r6, [r5, #0]
 80003a4:	4620      	mov	r0, r4
 80003a6:	bdf8      	pop	{r3, r4, r5, r6, r7, pc}

080003a8 <error>:
 80003a8:	b5f8      	push	{r3, r4, r5, r6, r7, lr}
 80003aa:	4604      	mov	r4, r0
 80003ac:	f7ff ffa0 	bl	80002f0 <__errno>
 80003b0:	2613      	movs	r6, #19
 80003b2:	4605      	mov	r5, r0
 80003b4:	2700      	movs	r7, #0
 80003b6:	4630      	mov	r0, r6
 80003b8:	4639      	mov	r1, r7
 80003ba:	beab      	bkpt	0x00ab
 80003bc:	4606      	mov	r6, r0
 80003be:	602e      	str	r6, [r5, #0]
 80003c0:	4620      	mov	r0, r4
 80003c2:	bdf8      	pop	{r3, r4, r5, r6, r7, pc}

080003c4 <_swiread>:
 80003c4:	b530      	push	{r4, r5, lr}
 80003c6:	b085      	sub	sp, #20
 80003c8:	e9cd 0101 	strd	r0, r1, [sp, #4]
 80003cc:	9203      	str	r2, [sp, #12]
 80003ce:	2406      	movs	r4, #6
 80003d0:	ad01      	add	r5, sp, #4
 80003d2:	4620      	mov	r0, r4
 80003d4:	4629      	mov	r1, r5
 80003d6:	beab      	bkpt	0x00ab
 80003d8:	4604      	mov	r4, r0
 80003da:	4620      	mov	r0, r4
 80003dc:	f7ff ffd4 	bl	8000388 <checkerror>
 80003e0:	b005      	add	sp, #20
 80003e2:	bd30      	pop	{r4, r5, pc}

080003e4 <_read>:
 80003e4:	b570      	push	{r4, r5, r6, lr}
 80003e6:	460e      	mov	r6, r1
 80003e8:	4615      	mov	r5, r2
 80003ea:	f7ff ffb3 	bl	8000354 <findslot>
 80003ee:	4604      	mov	r4, r0
 80003f0:	b930      	cbnz	r0, 8000400 <_read+0x1c>
 80003f2:	f7ff ff7d 	bl	80002f0 <__errno>
 80003f6:	2309      	movs	r3, #9
 80003f8:	6003      	str	r3, [r0, #0]
 80003fa:	f04f 30ff 	mov.w	r0, #4294967295
 80003fe:	bd70      	pop	{r4, r5, r6, pc}
 8000400:	6800      	ldr	r0, [r0, #0]
 8000402:	462a      	mov	r2, r5
 8000404:	4631      	mov	r1, r6
 8000406:	f7ff ffdd 	bl	80003c4 <_swiread>
 800040a:	1c43      	adds	r3, r0, #1
 800040c:	bf1f      	itttt	ne
 800040e:	6863      	ldrne	r3, [r4, #4]
 8000410:	1a28      	subne	r0, r5, r0
 8000412:	181b      	addne	r3, r3, r0
 8000414:	6063      	strne	r3, [r4, #4]
 8000416:	e7f2      	b.n	80003fe <_read+0x1a>

08000418 <_swilseek>:
 8000418:	b5f7      	push	{r0, r1, r2, r4, r5, r6, r7, lr}
 800041a:	460c      	mov	r4, r1
 800041c:	4616      	mov	r6, r2
 800041e:	f7ff ff99 	bl	8000354 <findslot>
 8000422:	4605      	mov	r5, r0
 8000424:	b940      	cbnz	r0, 8000438 <_swilseek+0x20>
 8000426:	f7ff ff63 	bl	80002f0 <__errno>
 800042a:	2309      	movs	r3, #9
 800042c:	6003      	str	r3, [r0, #0]
 800042e:	f04f 34ff 	mov.w	r4, #4294967295
 8000432:	4620      	mov	r0, r4
 8000434:	b003      	add	sp, #12
 8000436:	bdf0      	pop	{r4, r5, r6, r7, pc}
 8000438:	2e02      	cmp	r6, #2
 800043a:	d903      	bls.n	8000444 <_swilseek+0x2c>
 800043c:	f7ff ff58 	bl	80002f0 <__errno>
 8000440:	2316      	movs	r3, #22
 8000442:	e7f3      	b.n	800042c <_swilseek+0x14>
 8000444:	2e01      	cmp	r6, #1
 8000446:	d112      	bne.n	800046e <_swilseek+0x56>
 8000448:	6843      	ldr	r3, [r0, #4]
 800044a:	18e4      	adds	r4, r4, r3
 800044c:	d4f6      	bmi.n	800043c <_swilseek+0x24>
 800044e:	682b      	ldr	r3, [r5, #0]
 8000450:	260a      	movs	r6, #10
 8000452:	e9cd 3400 	strd	r3, r4, [sp]
 8000456:	466f      	mov	r7, sp
 8000458:	4630      	mov	r0, r6
 800045a:	4639      	mov	r1, r7
 800045c:	beab      	bkpt	0x00ab
 800045e:	4606      	mov	r6, r0
 8000460:	4630      	mov	r0, r6
 8000462:	f7ff ff91 	bl	8000388 <checkerror>
 8000466:	2800      	cmp	r0, #0
 8000468:	dbe1      	blt.n	800042e <_swilseek+0x16>
 800046a:	606c      	str	r4, [r5, #4]
 800046c:	e7e1      	b.n	8000432 <_swilseek+0x1a>
 800046e:	2e02      	cmp	r6, #2
 8000470:	d1ed      	bne.n	800044e <_swilseek+0x36>
 8000472:	6803      	ldr	r3, [r0, #0]
 8000474:	9300      	str	r3, [sp, #0]
 8000476:	260c      	movs	r6, #12
 8000478:	466f      	mov	r7, sp
 800047a:	4630      	mov	r0, r6
 800047c:	4639      	mov	r1, r7
 800047e:	beab      	bkpt	0x00ab
 8000480:	4606      	mov	r6, r0
 8000482:	4630      	mov	r0, r6
 8000484:	f7ff ff80 	bl	8000388 <checkerror>
 8000488:	1c43      	adds	r3, r0, #1
 800048a:	d0d0      	beq.n	800042e <_swilseek+0x16>
 800048c:	4404      	add	r4, r0
 800048e:	e7de      	b.n	800044e <_swilseek+0x36>

08000490 <_lseek>:
 8000490:	f7ff bfc2 	b.w	8000418 <_swilseek>

08000494 <_swiwrite>:
 8000494:	b530      	push	{r4, r5, lr}
 8000496:	b085      	sub	sp, #20
 8000498:	e9cd 0101 	strd	r0, r1, [sp, #4]
 800049c:	9203      	str	r2, [sp, #12]
 800049e:	2405      	movs	r4, #5
 80004a0:	ad01      	add	r5, sp, #4
 80004a2:	4620      	mov	r0, r4
 80004a4:	4629      	mov	r1, r5
 80004a6:	beab      	bkpt	0x00ab
 80004a8:	4604      	mov	r4, r0
 80004aa:	4620      	mov	r0, r4
 80004ac:	f7ff ff6c 	bl	8000388 <checkerror>
 80004b0:	b005      	add	sp, #20
 80004b2:	bd30      	pop	{r4, r5, pc}

080004b4 <_write>:
 80004b4:	b570      	push	{r4, r5, r6, lr}
 80004b6:	460e      	mov	r6, r1
 80004b8:	4615      	mov	r5, r2
 80004ba:	f7ff ff4b 	bl	8000354 <findslot>
 80004be:	4604      	mov	r4, r0
 80004c0:	b930      	cbnz	r0, 80004d0 <_write+0x1c>
 80004c2:	f7ff ff15 	bl	80002f0 <__errno>
 80004c6:	2309      	movs	r3, #9
 80004c8:	6003      	str	r3, [r0, #0]
 80004ca:	f04f 30ff 	mov.w	r0, #4294967295
 80004ce:	bd70      	pop	{r4, r5, r6, pc}
 80004d0:	6800      	ldr	r0, [r0, #0]
 80004d2:	462a      	mov	r2, r5
 80004d4:	4631      	mov	r1, r6
 80004d6:	f7ff ffdd 	bl	8000494 <_swiwrite>
 80004da:	1e03      	subs	r3, r0, #0
 80004dc:	dbf5      	blt.n	80004ca <_write+0x16>
 80004de:	6862      	ldr	r2, [r4, #4]
 80004e0:	1ae8      	subs	r0, r5, r3
 80004e2:	4402      	add	r2, r0
 80004e4:	42ab      	cmp	r3, r5
 80004e6:	6062      	str	r2, [r4, #4]
 80004e8:	d1f1      	bne.n	80004ce <_write+0x1a>
 80004ea:	e8bd 4070 	ldmia.w	sp!, {r4, r5, r6, lr}
 80004ee:	2000      	movs	r0, #0
 80004f0:	f7ff bf5a 	b.w	80003a8 <error>

080004f4 <_swiclose>:
 80004f4:	b537      	push	{r0, r1, r2, r4, r5, lr}
 80004f6:	2402      	movs	r4, #2
 80004f8:	9001      	str	r0, [sp, #4]
 80004fa:	ad01      	add	r5, sp, #4
 80004fc:	4620      	mov	r0, r4
 80004fe:	4629      	mov	r1, r5
 8000500:	beab      	bkpt	0x00ab
 8000502:	4604      	mov	r4, r0
 8000504:	4620      	mov	r0, r4
 8000506:	f7ff ff3f 	bl	8000388 <checkerror>
 800050a:	b003      	add	sp, #12
 800050c:	bd30      	pop	{r4, r5, pc}
	...

08000510 <_close>:
 8000510:	b538      	push	{r3, r4, r5, lr}
 8000512:	4605      	mov	r5, r0
 8000514:	f7ff ff1e 	bl	8000354 <findslot>
 8000518:	4604      	mov	r4, r0
 800051a:	b930      	cbnz	r0, 800052a <_close+0x1a>
 800051c:	f7ff fee8 	bl	80002f0 <__errno>
 8000520:	2309      	movs	r3, #9
 8000522:	6003      	str	r3, [r0, #0]
 8000524:	f04f 30ff 	mov.w	r0, #4294967295
 8000528:	bd38      	pop	{r3, r4, r5, pc}
 800052a:	3d01      	subs	r5, #1
 800052c:	2d01      	cmp	r5, #1
 800052e:	d809      	bhi.n	8000544 <_close+0x34>
 8000530:	4b09      	ldr	r3, [pc, #36]	; (8000558 <_close+0x48>)
 8000532:	689a      	ldr	r2, [r3, #8]
 8000534:	691b      	ldr	r3, [r3, #16]
 8000536:	429a      	cmp	r2, r3
 8000538:	d104      	bne.n	8000544 <_close+0x34>
 800053a:	f04f 33ff 	mov.w	r3, #4294967295
 800053e:	6003      	str	r3, [r0, #0]
 8000540:	2000      	movs	r0, #0
 8000542:	e7f1      	b.n	8000528 <_close+0x18>
 8000544:	6820      	ldr	r0, [r4, #0]
 8000546:	f7ff ffd5 	bl	80004f4 <_swiclose>
 800054a:	2800      	cmp	r0, #0
 800054c:	d1ec      	bne.n	8000528 <_close+0x18>
 800054e:	f04f 33ff 	mov.w	r3, #4294967295
 8000552:	6023      	str	r3, [r4, #0]
 8000554:	e7e8      	b.n	8000528 <_close+0x18>
 8000556:	bf00      	nop
 8000558:	20000098 	.word	0x20000098

0800055c <_swistat>:
 800055c:	b570      	push	{r4, r5, r6, lr}
 800055e:	460c      	mov	r4, r1
 8000560:	f7ff fef8 	bl	8000354 <findslot>
 8000564:	4605      	mov	r5, r0
 8000566:	b930      	cbnz	r0, 8000576 <_swistat+0x1a>
 8000568:	f7ff fec2 	bl	80002f0 <__errno>
 800056c:	2309      	movs	r3, #9
 800056e:	6003      	str	r3, [r0, #0]
 8000570:	f04f 30ff 	mov.w	r0, #4294967295
 8000574:	bd70      	pop	{r4, r5, r6, pc}
 8000576:	6863      	ldr	r3, [r4, #4]
 8000578:	f443 5300 	orr.w	r3, r3, #8192	; 0x2000
 800057c:	6063      	str	r3, [r4, #4]
 800057e:	f44f 6380 	mov.w	r3, #1024	; 0x400
 8000582:	64a3      	str	r3, [r4, #72]	; 0x48
 8000584:	260c      	movs	r6, #12
 8000586:	4630      	mov	r0, r6
 8000588:	4629      	mov	r1, r5
 800058a:	beab      	bkpt	0x00ab
 800058c:	4605      	mov	r5, r0
 800058e:	4628      	mov	r0, r5
 8000590:	f7ff fefa 	bl	8000388 <checkerror>
 8000594:	1c43      	adds	r3, r0, #1
 8000596:	bf1c      	itt	ne
 8000598:	6120      	strne	r0, [r4, #16]
 800059a:	2000      	movne	r0, #0
 800059c:	e7ea      	b.n	8000574 <_swistat+0x18>

0800059e <_stat>:
 800059e:	b538      	push	{r3, r4, r5, lr}
 80005a0:	460d      	mov	r5, r1
 80005a2:	4604      	mov	r4, r0
 80005a4:	2258      	movs	r2, #88	; 0x58
 80005a6:	2100      	movs	r1, #0
 80005a8:	4628      	mov	r0, r5
 80005aa:	f7ff fecb 	bl	8000344 <memset>
 80005ae:	4620      	mov	r0, r4
 80005b0:	2100      	movs	r1, #0
 80005b2:	f000 f811 	bl	80005d8 <_swiopen>
 80005b6:	1c43      	adds	r3, r0, #1
 80005b8:	4604      	mov	r4, r0
 80005ba:	d00b      	beq.n	80005d4 <_stat+0x36>
 80005bc:	686b      	ldr	r3, [r5, #4]
 80005be:	f443 4301 	orr.w	r3, r3, #33024	; 0x8100
 80005c2:	606b      	str	r3, [r5, #4]
 80005c4:	4629      	mov	r1, r5
 80005c6:	f7ff ffc9 	bl	800055c <_swistat>
 80005ca:	4605      	mov	r5, r0
 80005cc:	4620      	mov	r0, r4
 80005ce:	f7ff ff9f 	bl	8000510 <_close>
 80005d2:	462c      	mov	r4, r5
 80005d4:	4620      	mov	r0, r4
 80005d6:	bd38      	pop	{r3, r4, r5, pc}

080005d8 <_swiopen>:
 80005d8:	e92d 43f0 	stmdb	sp!, {r4, r5, r6, r7, r8, r9, lr}
 80005dc:	4b2a      	ldr	r3, [pc, #168]	; (8000688 <_swiopen+0xb0>)
 80005de:	b097      	sub	sp, #92	; 0x5c
 80005e0:	4681      	mov	r9, r0
 80005e2:	460f      	mov	r7, r1
 80005e4:	2500      	movs	r5, #0
 80005e6:	461e      	mov	r6, r3
 80005e8:	f853 4035 	ldr.w	r4, [r3, r5, lsl #3]
 80005ec:	1c61      	adds	r1, r4, #1
 80005ee:	d037      	beq.n	8000660 <_swiopen+0x88>
 80005f0:	3501      	adds	r5, #1
 80005f2:	2d14      	cmp	r5, #20
 80005f4:	d1f8      	bne.n	80005e8 <_swiopen+0x10>
 80005f6:	f7ff fe7b 	bl	80002f0 <__errno>
 80005fa:	2318      	movs	r3, #24
 80005fc:	6003      	str	r3, [r0, #0]
 80005fe:	f04f 34ff 	mov.w	r4, #4294967295
 8000602:	e03d      	b.n	8000680 <_swiopen+0xa8>
 8000604:	f3c7 4400 	ubfx	r4, r7, #16, #1
 8000608:	f240 6301 	movw	r3, #1537	; 0x601
 800060c:	07ba      	lsls	r2, r7, #30
 800060e:	bf48      	it	mi
 8000610:	f044 0402 	orrmi.w	r4, r4, #2
 8000614:	421f      	tst	r7, r3
 8000616:	bf18      	it	ne
 8000618:	f044 0404 	orrne.w	r4, r4, #4
 800061c:	073b      	lsls	r3, r7, #28
 800061e:	bf48      	it	mi
 8000620:	f024 0404 	bicmi.w	r4, r4, #4
 8000624:	4648      	mov	r0, r9
 8000626:	bf48      	it	mi
 8000628:	f044 0408 	orrmi.w	r4, r4, #8
 800062c:	f8cd 9000 	str.w	r9, [sp]
 8000630:	f7ff fddc 	bl	80001ec <strlen>
 8000634:	e9cd 4001 	strd	r4, r0, [sp, #4]
 8000638:	2401      	movs	r4, #1
 800063a:	4620      	mov	r0, r4
 800063c:	4641      	mov	r1, r8
 800063e:	beab      	bkpt	0x00ab
 8000640:	4604      	mov	r4, r0
 8000642:	2c00      	cmp	r4, #0
 8000644:	db07      	blt.n	8000656 <_swiopen+0x7e>
 8000646:	f846 4035 	str.w	r4, [r6, r5, lsl #3]
 800064a:	eb06 06c5 	add.w	r6, r6, r5, lsl #3
 800064e:	2300      	movs	r3, #0
 8000650:	6073      	str	r3, [r6, #4]
 8000652:	462c      	mov	r4, r5
 8000654:	e014      	b.n	8000680 <_swiopen+0xa8>
 8000656:	4620      	mov	r0, r4
 8000658:	f7ff fea6 	bl	80003a8 <error>
 800065c:	4604      	mov	r4, r0
 800065e:	e00f      	b.n	8000680 <_swiopen+0xa8>
 8000660:	f407 6320 	and.w	r3, r7, #2560	; 0xa00
 8000664:	f5b3 6f20 	cmp.w	r3, #2560	; 0xa00
 8000668:	46e8      	mov	r8, sp
 800066a:	d1cb      	bne.n	8000604 <_swiopen+0x2c>
 800066c:	4641      	mov	r1, r8
 800066e:	4648      	mov	r0, r9
 8000670:	f7ff ff95 	bl	800059e <_stat>
 8000674:	3001      	adds	r0, #1
 8000676:	d0c5      	beq.n	8000604 <_swiopen+0x2c>
 8000678:	f7ff fe3a 	bl	80002f0 <__errno>
 800067c:	2311      	movs	r3, #17
 800067e:	6003      	str	r3, [r0, #0]
 8000680:	4620      	mov	r0, r4
 8000682:	b017      	add	sp, #92	; 0x5c
 8000684:	e8bd 83f0 	ldmia.w	sp!, {r4, r5, r6, r7, r8, r9, pc}
 8000688:	20000098 	.word	0x20000098

0800068c <_get_semihosting_exts>:
 800068c:	e92d 43f7 	stmdb	sp!, {r0, r1, r2, r4, r5, r6, r7, r8, r9, lr}
 8000690:	4606      	mov	r6, r0
 8000692:	460f      	mov	r7, r1
 8000694:	482a      	ldr	r0, [pc, #168]	; (8000740 <_get_semihosting_exts+0xb4>)
 8000696:	2100      	movs	r1, #0
 8000698:	4615      	mov	r5, r2
 800069a:	f7ff ff9d 	bl	80005d8 <_swiopen>
 800069e:	462a      	mov	r2, r5
 80006a0:	4604      	mov	r4, r0
 80006a2:	2100      	movs	r1, #0
 80006a4:	4630      	mov	r0, r6
 80006a6:	f7ff fe4d 	bl	8000344 <memset>
 80006aa:	1c63      	adds	r3, r4, #1
 80006ac:	d016      	beq.n	80006dc <_get_semihosting_exts+0x50>
 80006ae:	4620      	mov	r0, r4
 80006b0:	f7ff fe50 	bl	8000354 <findslot>
 80006b4:	f04f 080c 	mov.w	r8, #12
 80006b8:	4681      	mov	r9, r0
 80006ba:	4640      	mov	r0, r8
 80006bc:	4649      	mov	r1, r9
 80006be:	beab      	bkpt	0x00ab
 80006c0:	4680      	mov	r8, r0
 80006c2:	4640      	mov	r0, r8
 80006c4:	f7ff fe60 	bl	8000388 <checkerror>
 80006c8:	2803      	cmp	r0, #3
 80006ca:	dd02      	ble.n	80006d2 <_get_semihosting_exts+0x46>
 80006cc:	1ec3      	subs	r3, r0, #3
 80006ce:	42ab      	cmp	r3, r5
 80006d0:	dc08      	bgt.n	80006e4 <_get_semihosting_exts+0x58>
 80006d2:	4620      	mov	r0, r4
 80006d4:	f7ff ff1c 	bl	8000510 <_close>
 80006d8:	f04f 34ff 	mov.w	r4, #4294967295
 80006dc:	4620      	mov	r0, r4
 80006de:	b003      	add	sp, #12
 80006e0:	e8bd 83f0 	ldmia.w	sp!, {r4, r5, r6, r7, r8, r9, pc}
 80006e4:	2204      	movs	r2, #4
 80006e6:	eb0d 0102 	add.w	r1, sp, r2
 80006ea:	4620      	mov	r0, r4
 80006ec:	f7ff fe7a 	bl	80003e4 <_read>
 80006f0:	2803      	cmp	r0, #3
 80006f2:	ddee      	ble.n	80006d2 <_get_semihosting_exts+0x46>
 80006f4:	f89d 3004 	ldrb.w	r3, [sp, #4]
 80006f8:	2b53      	cmp	r3, #83	; 0x53
 80006fa:	d1ea      	bne.n	80006d2 <_get_semihosting_exts+0x46>
 80006fc:	f89d 3005 	ldrb.w	r3, [sp, #5]
 8000700:	2b48      	cmp	r3, #72	; 0x48
 8000702:	d1e6      	bne.n	80006d2 <_get_semihosting_exts+0x46>
 8000704:	f89d 3006 	ldrb.w	r3, [sp, #6]
 8000708:	2b46      	cmp	r3, #70	; 0x46
 800070a:	d1e2      	bne.n	80006d2 <_get_semihosting_exts+0x46>
 800070c:	f89d 3007 	ldrb.w	r3, [sp, #7]
 8000710:	2b42      	cmp	r3, #66	; 0x42
 8000712:	d1de      	bne.n	80006d2 <_get_semihosting_exts+0x46>
 8000714:	2201      	movs	r2, #1
 8000716:	4639      	mov	r1, r7
 8000718:	4620      	mov	r0, r4
 800071a:	f7ff fe7d 	bl	8000418 <_swilseek>
 800071e:	2800      	cmp	r0, #0
 8000720:	dbd7      	blt.n	80006d2 <_get_semihosting_exts+0x46>
 8000722:	462a      	mov	r2, r5
 8000724:	4631      	mov	r1, r6
 8000726:	4620      	mov	r0, r4
 8000728:	f7ff fe5c 	bl	80003e4 <_read>
 800072c:	4605      	mov	r5, r0
 800072e:	4620      	mov	r0, r4
 8000730:	f7ff feee 	bl	8000510 <_close>
 8000734:	4628      	mov	r0, r5
 8000736:	f7ff fe27 	bl	8000388 <checkerror>
 800073a:	4604      	mov	r4, r0
 800073c:	e7ce      	b.n	80006dc <_get_semihosting_exts+0x50>
 800073e:	bf00      	nop
 8000740:	08000e78 	.word	0x08000e78

08000744 <initialise_semihosting_exts>:
 8000744:	b537      	push	{r0, r1, r2, r4, r5, lr}
 8000746:	4d0a      	ldr	r5, [pc, #40]	; (8000770 <initialise_semihosting_exts+0x2c>)
 8000748:	4c0a      	ldr	r4, [pc, #40]	; (8000774 <initialise_semihosting_exts+0x30>)
 800074a:	2100      	movs	r1, #0
 800074c:	2201      	movs	r2, #1
 800074e:	a801      	add	r0, sp, #4
 8000750:	6029      	str	r1, [r5, #0]
 8000752:	6022      	str	r2, [r4, #0]
 8000754:	f7ff ff9a 	bl	800068c <_get_semihosting_exts>
 8000758:	2800      	cmp	r0, #0
 800075a:	dd07      	ble.n	800076c <initialise_semihosting_exts+0x28>
 800075c:	f89d 3004 	ldrb.w	r3, [sp, #4]
 8000760:	f003 0201 	and.w	r2, r3, #1
 8000764:	f003 0302 	and.w	r3, r3, #2
 8000768:	602a      	str	r2, [r5, #0]
 800076a:	6023      	str	r3, [r4, #0]
 800076c:	b003      	add	sp, #12
 800076e:	bd30      	pop	{r4, r5, pc}
 8000770:	20000064 	.word	0x20000064
 8000774:	20000068 	.word	0x20000068

08000778 <_has_ext_stdout_stderr>:
 8000778:	b510      	push	{r4, lr}
 800077a:	4c04      	ldr	r4, [pc, #16]	; (800078c <_has_ext_stdout_stderr+0x14>)
 800077c:	6822      	ldr	r2, [r4, #0]
 800077e:	2a00      	cmp	r2, #0
 8000780:	da01      	bge.n	8000786 <_has_ext_stdout_stderr+0xe>
 8000782:	f7ff ffdf 	bl	8000744 <initialise_semihosting_exts>
 8000786:	6820      	ldr	r0, [r4, #0]
 8000788:	bd10      	pop	{r4, pc}
 800078a:	bf00      	nop
 800078c:	20000068 	.word	0x20000068

08000790 <initialise_monitor_handles>:
 8000790:	e92d 4ff0 	stmdb	sp!, {r4, r5, r6, r7, r8, r9, sl, fp, lr}
 8000794:	b085      	sub	sp, #20
 8000796:	f8df 90b0 	ldr.w	r9, [pc, #176]	; 8000848 <initialise_monitor_handles+0xb8>
 800079a:	f8cd 9004 	str.w	r9, [sp, #4]
 800079e:	2303      	movs	r3, #3
 80007a0:	2400      	movs	r4, #0
 80007a2:	9303      	str	r3, [sp, #12]
 80007a4:	f10d 0804 	add.w	r8, sp, #4
 80007a8:	9402      	str	r4, [sp, #8]
 80007aa:	2501      	movs	r5, #1
 80007ac:	4628      	mov	r0, r5
 80007ae:	4641      	mov	r1, r8
 80007b0:	beab      	bkpt	0x00ab
 80007b2:	4605      	mov	r5, r0
 80007b4:	4e20      	ldr	r6, [pc, #128]	; (8000838 <initialise_monitor_handles+0xa8>)
 80007b6:	4a21      	ldr	r2, [pc, #132]	; (800083c <initialise_monitor_handles+0xac>)
 80007b8:	6035      	str	r5, [r6, #0]
 80007ba:	4623      	mov	r3, r4
 80007bc:	f04f 31ff 	mov.w	r1, #4294967295
 80007c0:	4614      	mov	r4, r2
 80007c2:	f842 1033 	str.w	r1, [r2, r3, lsl #3]
 80007c6:	3301      	adds	r3, #1
 80007c8:	2b14      	cmp	r3, #20
 80007ca:	d1fa      	bne.n	80007c2 <initialise_monitor_handles+0x32>
 80007cc:	f7ff ffd4 	bl	8000778 <_has_ext_stdout_stderr>
 80007d0:	4d1b      	ldr	r5, [pc, #108]	; (8000840 <initialise_monitor_handles+0xb0>)
 80007d2:	b1d0      	cbz	r0, 800080a <initialise_monitor_handles+0x7a>
 80007d4:	f04f 0a03 	mov.w	sl, #3
 80007d8:	2304      	movs	r3, #4
 80007da:	f8cd 9004 	str.w	r9, [sp, #4]
 80007de:	2701      	movs	r7, #1
 80007e0:	f8cd a00c 	str.w	sl, [sp, #12]
 80007e4:	9302      	str	r3, [sp, #8]
 80007e6:	4638      	mov	r0, r7
 80007e8:	4641      	mov	r1, r8
 80007ea:	beab      	bkpt	0x00ab
 80007ec:	4683      	mov	fp, r0
 80007ee:	4b15      	ldr	r3, [pc, #84]	; (8000844 <initialise_monitor_handles+0xb4>)
 80007f0:	f8cd 9004 	str.w	r9, [sp, #4]
 80007f4:	f8c3 b000 	str.w	fp, [r3]
 80007f8:	2308      	movs	r3, #8
 80007fa:	f8cd a00c 	str.w	sl, [sp, #12]
 80007fe:	9302      	str	r3, [sp, #8]
 8000800:	4638      	mov	r0, r7
 8000802:	4641      	mov	r1, r8
 8000804:	beab      	bkpt	0x00ab
 8000806:	4607      	mov	r7, r0
 8000808:	602f      	str	r7, [r5, #0]
 800080a:	682b      	ldr	r3, [r5, #0]
 800080c:	3301      	adds	r3, #1
 800080e:	bf02      	ittt	eq
 8000810:	4b0c      	ldreq	r3, [pc, #48]	; (8000844 <initialise_monitor_handles+0xb4>)
 8000812:	681b      	ldreq	r3, [r3, #0]
 8000814:	602b      	streq	r3, [r5, #0]
 8000816:	6833      	ldr	r3, [r6, #0]
 8000818:	6023      	str	r3, [r4, #0]
 800081a:	2600      	movs	r6, #0
 800081c:	6066      	str	r6, [r4, #4]
 800081e:	f7ff ffab 	bl	8000778 <_has_ext_stdout_stderr>
 8000822:	b130      	cbz	r0, 8000832 <initialise_monitor_handles+0xa2>
 8000824:	4b07      	ldr	r3, [pc, #28]	; (8000844 <initialise_monitor_handles+0xb4>)
 8000826:	681b      	ldr	r3, [r3, #0]
 8000828:	e9c4 3602 	strd	r3, r6, [r4, #8]
 800082c:	682b      	ldr	r3, [r5, #0]
 800082e:	e9c4 3604 	strd	r3, r6, [r4, #16]
 8000832:	b005      	add	sp, #20
 8000834:	e8bd 8ff0 	ldmia.w	sp!, {r4, r5, r6, r7, r8, r9, sl, fp, pc}
 8000838:	20000090 	.word	0x20000090
 800083c:	20000098 	.word	0x20000098
 8000840:	2000008c 	.word	0x2000008c
 8000844:	20000094 	.word	0x20000094
 8000848:	08000e8e 	.word	0x08000e8e

0800084c <std>:
 800084c:	2300      	movs	r3, #0
 800084e:	b510      	push	{r4, lr}
 8000850:	4604      	mov	r4, r0
 8000852:	e9c0 3300 	strd	r3, r3, [r0]
 8000856:	e9c0 3304 	strd	r3, r3, [r0, #16]
 800085a:	6083      	str	r3, [r0, #8]
 800085c:	8181      	strh	r1, [r0, #12]
 800085e:	6643      	str	r3, [r0, #100]	; 0x64
 8000860:	81c2      	strh	r2, [r0, #14]
 8000862:	6183      	str	r3, [r0, #24]
 8000864:	4619      	mov	r1, r3
 8000866:	2208      	movs	r2, #8
 8000868:	305c      	adds	r0, #92	; 0x5c
 800086a:	f7ff fd6b 	bl	8000344 <memset>
 800086e:	4b05      	ldr	r3, [pc, #20]	; (8000884 <std+0x38>)
 8000870:	6263      	str	r3, [r4, #36]	; 0x24
 8000872:	4b05      	ldr	r3, [pc, #20]	; (8000888 <std+0x3c>)
 8000874:	62a3      	str	r3, [r4, #40]	; 0x28
 8000876:	4b05      	ldr	r3, [pc, #20]	; (800088c <std+0x40>)
 8000878:	62e3      	str	r3, [r4, #44]	; 0x2c
 800087a:	4b05      	ldr	r3, [pc, #20]	; (8000890 <std+0x44>)
 800087c:	6224      	str	r4, [r4, #32]
 800087e:	6323      	str	r3, [r4, #48]	; 0x30
 8000880:	bd10      	pop	{r4, pc}
 8000882:	bf00      	nop
 8000884:	08000b11 	.word	0x08000b11
 8000888:	08000b33 	.word	0x08000b33
 800088c:	08000b6b 	.word	0x08000b6b
 8000890:	08000b8f 	.word	0x08000b8f

08000894 <_cleanup_r>:
 8000894:	4901      	ldr	r1, [pc, #4]	; (800089c <_cleanup_r+0x8>)
 8000896:	f000 b8af 	b.w	80009f8 <_fwalk_reent>
 800089a:	bf00      	nop
 800089c:	08000ce9 	.word	0x08000ce9

080008a0 <__sfmoreglue>:
 80008a0:	b570      	push	{r4, r5, r6, lr}
 80008a2:	1e4a      	subs	r2, r1, #1
 80008a4:	2568      	movs	r5, #104	; 0x68
 80008a6:	4355      	muls	r5, r2
 80008a8:	460e      	mov	r6, r1
 80008aa:	f105 0174 	add.w	r1, r5, #116	; 0x74
 80008ae:	f000 f8c5 	bl	8000a3c <_malloc_r>
 80008b2:	4604      	mov	r4, r0
 80008b4:	b140      	cbz	r0, 80008c8 <__sfmoreglue+0x28>
 80008b6:	2100      	movs	r1, #0
 80008b8:	e9c0 1600 	strd	r1, r6, [r0]
 80008bc:	300c      	adds	r0, #12
 80008be:	60a0      	str	r0, [r4, #8]
 80008c0:	f105 0268 	add.w	r2, r5, #104	; 0x68
 80008c4:	f7ff fd3e 	bl	8000344 <memset>
 80008c8:	4620      	mov	r0, r4
 80008ca:	bd70      	pop	{r4, r5, r6, pc}

080008cc <__sfp_lock_acquire>:
 80008cc:	4801      	ldr	r0, [pc, #4]	; (80008d4 <__sfp_lock_acquire+0x8>)
 80008ce:	f000 b8b3 	b.w	8000a38 <__retarget_lock_acquire_recursive>
 80008d2:	bf00      	nop
 80008d4:	20000148 	.word	0x20000148

080008d8 <__sfp_lock_release>:
 80008d8:	4801      	ldr	r0, [pc, #4]	; (80008e0 <__sfp_lock_release+0x8>)
 80008da:	f000 b8ae 	b.w	8000a3a <__retarget_lock_release_recursive>
 80008de:	bf00      	nop
 80008e0:	20000148 	.word	0x20000148

080008e4 <__sinit_lock_acquire>:
 80008e4:	4801      	ldr	r0, [pc, #4]	; (80008ec <__sinit_lock_acquire+0x8>)
 80008e6:	f000 b8a7 	b.w	8000a38 <__retarget_lock_acquire_recursive>
 80008ea:	bf00      	nop
 80008ec:	20000143 	.word	0x20000143

080008f0 <__sinit_lock_release>:
 80008f0:	4801      	ldr	r0, [pc, #4]	; (80008f8 <__sinit_lock_release+0x8>)
 80008f2:	f000 b8a2 	b.w	8000a3a <__retarget_lock_release_recursive>
 80008f6:	bf00      	nop
 80008f8:	20000143 	.word	0x20000143

080008fc <__sinit>:
 80008fc:	b510      	push	{r4, lr}
 80008fe:	4604      	mov	r4, r0
 8000900:	f7ff fff0 	bl	80008e4 <__sinit_lock_acquire>
 8000904:	69a3      	ldr	r3, [r4, #24]
 8000906:	b11b      	cbz	r3, 8000910 <__sinit+0x14>
 8000908:	e8bd 4010 	ldmia.w	sp!, {r4, lr}
 800090c:	f7ff bff0 	b.w	80008f0 <__sinit_lock_release>
 8000910:	e9c4 3312 	strd	r3, r3, [r4, #72]	; 0x48
 8000914:	6523      	str	r3, [r4, #80]	; 0x50
 8000916:	4b13      	ldr	r3, [pc, #76]	; (8000964 <__sinit+0x68>)
 8000918:	4a13      	ldr	r2, [pc, #76]	; (8000968 <__sinit+0x6c>)
 800091a:	681b      	ldr	r3, [r3, #0]
 800091c:	62a2      	str	r2, [r4, #40]	; 0x28
 800091e:	42a3      	cmp	r3, r4
 8000920:	bf04      	itt	eq
 8000922:	2301      	moveq	r3, #1
 8000924:	61a3      	streq	r3, [r4, #24]
 8000926:	4620      	mov	r0, r4
 8000928:	f000 f820 	bl	800096c <__sfp>
 800092c:	6060      	str	r0, [r4, #4]
 800092e:	4620      	mov	r0, r4
 8000930:	f000 f81c 	bl	800096c <__sfp>
 8000934:	60a0      	str	r0, [r4, #8]
 8000936:	4620      	mov	r0, r4
 8000938:	f000 f818 	bl	800096c <__sfp>
 800093c:	2200      	movs	r2, #0
 800093e:	60e0      	str	r0, [r4, #12]
 8000940:	2104      	movs	r1, #4
 8000942:	6860      	ldr	r0, [r4, #4]
 8000944:	f7ff ff82 	bl	800084c <std>
 8000948:	68a0      	ldr	r0, [r4, #8]
 800094a:	2201      	movs	r2, #1
 800094c:	2109      	movs	r1, #9
 800094e:	f7ff ff7d 	bl	800084c <std>
 8000952:	68e0      	ldr	r0, [r4, #12]
 8000954:	2202      	movs	r2, #2
 8000956:	2112      	movs	r1, #18
 8000958:	f7ff ff78 	bl	800084c <std>
 800095c:	2301      	movs	r3, #1
 800095e:	61a3      	str	r3, [r4, #24]
 8000960:	e7d2      	b.n	8000908 <__sinit+0xc>
 8000962:	bf00      	nop
 8000964:	08000e74 	.word	0x08000e74
 8000968:	08000895 	.word	0x08000895

0800096c <__sfp>:
 800096c:	b5f8      	push	{r3, r4, r5, r6, r7, lr}
 800096e:	4607      	mov	r7, r0
 8000970:	f7ff ffac 	bl	80008cc <__sfp_lock_acquire>
 8000974:	4b1e      	ldr	r3, [pc, #120]	; (80009f0 <__sfp+0x84>)
 8000976:	681e      	ldr	r6, [r3, #0]
 8000978:	69b3      	ldr	r3, [r6, #24]
 800097a:	b913      	cbnz	r3, 8000982 <__sfp+0x16>
 800097c:	4630      	mov	r0, r6
 800097e:	f7ff ffbd 	bl	80008fc <__sinit>
 8000982:	3648      	adds	r6, #72	; 0x48
 8000984:	e9d6 3401 	ldrd	r3, r4, [r6, #4]
 8000988:	3b01      	subs	r3, #1
 800098a:	d503      	bpl.n	8000994 <__sfp+0x28>
 800098c:	6833      	ldr	r3, [r6, #0]
 800098e:	b30b      	cbz	r3, 80009d4 <__sfp+0x68>
 8000990:	6836      	ldr	r6, [r6, #0]
 8000992:	e7f7      	b.n	8000984 <__sfp+0x18>
 8000994:	f9b4 500c 	ldrsh.w	r5, [r4, #12]
 8000998:	b9d5      	cbnz	r5, 80009d0 <__sfp+0x64>
 800099a:	4b16      	ldr	r3, [pc, #88]	; (80009f4 <__sfp+0x88>)
 800099c:	60e3      	str	r3, [r4, #12]
 800099e:	f104 0058 	add.w	r0, r4, #88	; 0x58
 80009a2:	6665      	str	r5, [r4, #100]	; 0x64
 80009a4:	f000 f847 	bl	8000a36 <__retarget_lock_init_recursive>
 80009a8:	f7ff ff96 	bl	80008d8 <__sfp_lock_release>
 80009ac:	e9c4 5501 	strd	r5, r5, [r4, #4]
 80009b0:	e9c4 5504 	strd	r5, r5, [r4, #16]
 80009b4:	6025      	str	r5, [r4, #0]
 80009b6:	61a5      	str	r5, [r4, #24]
 80009b8:	2208      	movs	r2, #8
 80009ba:	4629      	mov	r1, r5
 80009bc:	f104 005c 	add.w	r0, r4, #92	; 0x5c
 80009c0:	f7ff fcc0 	bl	8000344 <memset>
 80009c4:	e9c4 550d 	strd	r5, r5, [r4, #52]	; 0x34
 80009c8:	e9c4 5512 	strd	r5, r5, [r4, #72]	; 0x48
 80009cc:	4620      	mov	r0, r4
 80009ce:	bdf8      	pop	{r3, r4, r5, r6, r7, pc}
 80009d0:	3468      	adds	r4, #104	; 0x68
 80009d2:	e7d9      	b.n	8000988 <__sfp+0x1c>
 80009d4:	2104      	movs	r1, #4
 80009d6:	4638      	mov	r0, r7
 80009d8:	f7ff ff62 	bl	80008a0 <__sfmoreglue>
 80009dc:	4604      	mov	r4, r0
 80009de:	6030      	str	r0, [r6, #0]
 80009e0:	2800      	cmp	r0, #0
 80009e2:	d1d5      	bne.n	8000990 <__sfp+0x24>
 80009e4:	f7ff ff78 	bl	80008d8 <__sfp_lock_release>
 80009e8:	230c      	movs	r3, #12
 80009ea:	603b      	str	r3, [r7, #0]
 80009ec:	e7ee      	b.n	80009cc <__sfp+0x60>
 80009ee:	bf00      	nop
 80009f0:	08000e74 	.word	0x08000e74
 80009f4:	ffff0001 	.word	0xffff0001

080009f8 <_fwalk_reent>:
 80009f8:	e92d 43f8 	stmdb	sp!, {r3, r4, r5, r6, r7, r8, r9, lr}
 80009fc:	4606      	mov	r6, r0
 80009fe:	4688      	mov	r8, r1
 8000a00:	f100 0448 	add.w	r4, r0, #72	; 0x48
 8000a04:	2700      	movs	r7, #0
 8000a06:	e9d4 9501 	ldrd	r9, r5, [r4, #4]
 8000a0a:	f1b9 0901 	subs.w	r9, r9, #1
 8000a0e:	d505      	bpl.n	8000a1c <_fwalk_reent+0x24>
 8000a10:	6824      	ldr	r4, [r4, #0]
 8000a12:	2c00      	cmp	r4, #0
 8000a14:	d1f7      	bne.n	8000a06 <_fwalk_reent+0xe>
 8000a16:	4638      	mov	r0, r7
 8000a18:	e8bd 83f8 	ldmia.w	sp!, {r3, r4, r5, r6, r7, r8, r9, pc}
 8000a1c:	89ab      	ldrh	r3, [r5, #12]
 8000a1e:	2b01      	cmp	r3, #1
 8000a20:	d907      	bls.n	8000a32 <_fwalk_reent+0x3a>
 8000a22:	f9b5 300e 	ldrsh.w	r3, [r5, #14]
 8000a26:	3301      	adds	r3, #1
 8000a28:	d003      	beq.n	8000a32 <_fwalk_reent+0x3a>
 8000a2a:	4629      	mov	r1, r5
 8000a2c:	4630      	mov	r0, r6
 8000a2e:	47c0      	blx	r8
 8000a30:	4307      	orrs	r7, r0
 8000a32:	3568      	adds	r5, #104	; 0x68
 8000a34:	e7e9      	b.n	8000a0a <_fwalk_reent+0x12>

08000a36 <__retarget_lock_init_recursive>:
 8000a36:	4770      	bx	lr

08000a38 <__retarget_lock_acquire_recursive>:
 8000a38:	4770      	bx	lr

08000a3a <__retarget_lock_release_recursive>:
 8000a3a:	4770      	bx	lr

08000a3c <_malloc_r>:
 8000a3c:	b5f8      	push	{r3, r4, r5, r6, r7, lr}
 8000a3e:	1ccd      	adds	r5, r1, #3
 8000a40:	f025 0503 	bic.w	r5, r5, #3
 8000a44:	3508      	adds	r5, #8
 8000a46:	2d0c      	cmp	r5, #12
 8000a48:	bf38      	it	cc
 8000a4a:	250c      	movcc	r5, #12
 8000a4c:	2d00      	cmp	r5, #0
 8000a4e:	4606      	mov	r6, r0
 8000a50:	db01      	blt.n	8000a56 <_malloc_r+0x1a>
 8000a52:	42a9      	cmp	r1, r5
 8000a54:	d903      	bls.n	8000a5e <_malloc_r+0x22>
 8000a56:	230c      	movs	r3, #12
 8000a58:	6033      	str	r3, [r6, #0]
 8000a5a:	2000      	movs	r0, #0
 8000a5c:	bdf8      	pop	{r3, r4, r5, r6, r7, pc}
 8000a5e:	f000 f991 	bl	8000d84 <__malloc_lock>
 8000a62:	4921      	ldr	r1, [pc, #132]	; (8000ae8 <_malloc_r+0xac>)
 8000a64:	680a      	ldr	r2, [r1, #0]
 8000a66:	4614      	mov	r4, r2
 8000a68:	b99c      	cbnz	r4, 8000a92 <_malloc_r+0x56>
 8000a6a:	4f20      	ldr	r7, [pc, #128]	; (8000aec <_malloc_r+0xb0>)
 8000a6c:	683b      	ldr	r3, [r7, #0]
 8000a6e:	b923      	cbnz	r3, 8000a7a <_malloc_r+0x3e>
 8000a70:	4621      	mov	r1, r4
 8000a72:	4630      	mov	r0, r6
 8000a74:	f000 f83c 	bl	8000af0 <_sbrk_r>
 8000a78:	6038      	str	r0, [r7, #0]
 8000a7a:	4629      	mov	r1, r5
 8000a7c:	4630      	mov	r0, r6
 8000a7e:	f000 f837 	bl	8000af0 <_sbrk_r>
 8000a82:	1c43      	adds	r3, r0, #1
 8000a84:	d123      	bne.n	8000ace <_malloc_r+0x92>
 8000a86:	230c      	movs	r3, #12
 8000a88:	6033      	str	r3, [r6, #0]
 8000a8a:	4630      	mov	r0, r6
 8000a8c:	f000 f980 	bl	8000d90 <__malloc_unlock>
 8000a90:	e7e3      	b.n	8000a5a <_malloc_r+0x1e>
 8000a92:	6823      	ldr	r3, [r4, #0]
 8000a94:	1b5b      	subs	r3, r3, r5
 8000a96:	d417      	bmi.n	8000ac8 <_malloc_r+0x8c>
 8000a98:	2b0b      	cmp	r3, #11
 8000a9a:	d903      	bls.n	8000aa4 <_malloc_r+0x68>
 8000a9c:	6023      	str	r3, [r4, #0]
 8000a9e:	441c      	add	r4, r3
 8000aa0:	6025      	str	r5, [r4, #0]
 8000aa2:	e004      	b.n	8000aae <_malloc_r+0x72>
 8000aa4:	6863      	ldr	r3, [r4, #4]
 8000aa6:	42a2      	cmp	r2, r4
 8000aa8:	bf0c      	ite	eq
 8000aaa:	600b      	streq	r3, [r1, #0]
 8000aac:	6053      	strne	r3, [r2, #4]
 8000aae:	4630      	mov	r0, r6
 8000ab0:	f000 f96e 	bl	8000d90 <__malloc_unlock>
 8000ab4:	f104 000b 	add.w	r0, r4, #11
 8000ab8:	1d23      	adds	r3, r4, #4
 8000aba:	f020 0007 	bic.w	r0, r0, #7
 8000abe:	1ac2      	subs	r2, r0, r3
 8000ac0:	d0cc      	beq.n	8000a5c <_malloc_r+0x20>
 8000ac2:	1a1b      	subs	r3, r3, r0
 8000ac4:	50a3      	str	r3, [r4, r2]
 8000ac6:	e7c9      	b.n	8000a5c <_malloc_r+0x20>
 8000ac8:	4622      	mov	r2, r4
 8000aca:	6864      	ldr	r4, [r4, #4]
 8000acc:	e7cc      	b.n	8000a68 <_malloc_r+0x2c>
 8000ace:	1cc4      	adds	r4, r0, #3
 8000ad0:	f024 0403 	bic.w	r4, r4, #3
 8000ad4:	42a0      	cmp	r0, r4
 8000ad6:	d0e3      	beq.n	8000aa0 <_malloc_r+0x64>
 8000ad8:	1a21      	subs	r1, r4, r0
 8000ada:	4630      	mov	r0, r6
 8000adc:	f000 f808 	bl	8000af0 <_sbrk_r>
 8000ae0:	3001      	adds	r0, #1
 8000ae2:	d1dd      	bne.n	8000aa0 <_malloc_r+0x64>
 8000ae4:	e7cf      	b.n	8000a86 <_malloc_r+0x4a>
 8000ae6:	bf00      	nop
 8000ae8:	20000138 	.word	0x20000138
 8000aec:	2000013c 	.word	0x2000013c

08000af0 <_sbrk_r>:
 8000af0:	b538      	push	{r3, r4, r5, lr}
 8000af2:	4d06      	ldr	r5, [pc, #24]	; (8000b0c <_sbrk_r+0x1c>)
 8000af4:	2300      	movs	r3, #0
 8000af6:	4604      	mov	r4, r0
 8000af8:	4608      	mov	r0, r1
 8000afa:	602b      	str	r3, [r5, #0]
 8000afc:	f7ff fb98 	bl	8000230 <_sbrk>
 8000b00:	1c43      	adds	r3, r0, #1
 8000b02:	d102      	bne.n	8000b0a <_sbrk_r+0x1a>
 8000b04:	682b      	ldr	r3, [r5, #0]
 8000b06:	b103      	cbz	r3, 8000b0a <_sbrk_r+0x1a>
 8000b08:	6023      	str	r3, [r4, #0]
 8000b0a:	bd38      	pop	{r3, r4, r5, pc}
 8000b0c:	2000014c 	.word	0x2000014c

08000b10 <__sread>:
 8000b10:	b510      	push	{r4, lr}
 8000b12:	460c      	mov	r4, r1
 8000b14:	f9b1 100e 	ldrsh.w	r1, [r1, #14]
 8000b18:	f000 f98e 	bl	8000e38 <_read_r>
 8000b1c:	2800      	cmp	r0, #0
 8000b1e:	bfab      	itete	ge
 8000b20:	6d63      	ldrge	r3, [r4, #84]	; 0x54
 8000b22:	89a3      	ldrhlt	r3, [r4, #12]
 8000b24:	181b      	addge	r3, r3, r0
 8000b26:	f423 5380 	biclt.w	r3, r3, #4096	; 0x1000
 8000b2a:	bfac      	ite	ge
 8000b2c:	6563      	strge	r3, [r4, #84]	; 0x54
 8000b2e:	81a3      	strhlt	r3, [r4, #12]
 8000b30:	bd10      	pop	{r4, pc}

08000b32 <__swrite>:
 8000b32:	e92d 41f0 	stmdb	sp!, {r4, r5, r6, r7, r8, lr}
 8000b36:	461f      	mov	r7, r3
 8000b38:	898b      	ldrh	r3, [r1, #12]
 8000b3a:	05db      	lsls	r3, r3, #23
 8000b3c:	4605      	mov	r5, r0
 8000b3e:	460c      	mov	r4, r1
 8000b40:	4616      	mov	r6, r2
 8000b42:	d505      	bpl.n	8000b50 <__swrite+0x1e>
 8000b44:	f9b1 100e 	ldrsh.w	r1, [r1, #14]
 8000b48:	2302      	movs	r3, #2
 8000b4a:	2200      	movs	r2, #0
 8000b4c:	f000 f908 	bl	8000d60 <_lseek_r>
 8000b50:	89a3      	ldrh	r3, [r4, #12]
 8000b52:	f9b4 100e 	ldrsh.w	r1, [r4, #14]
 8000b56:	f423 5380 	bic.w	r3, r3, #4096	; 0x1000
 8000b5a:	81a3      	strh	r3, [r4, #12]
 8000b5c:	4632      	mov	r2, r6
 8000b5e:	463b      	mov	r3, r7
 8000b60:	4628      	mov	r0, r5
 8000b62:	e8bd 41f0 	ldmia.w	sp!, {r4, r5, r6, r7, r8, lr}
 8000b66:	f000 b817 	b.w	8000b98 <_write_r>

08000b6a <__sseek>:
 8000b6a:	b510      	push	{r4, lr}
 8000b6c:	460c      	mov	r4, r1
 8000b6e:	f9b1 100e 	ldrsh.w	r1, [r1, #14]
 8000b72:	f000 f8f5 	bl	8000d60 <_lseek_r>
 8000b76:	1c43      	adds	r3, r0, #1
 8000b78:	89a3      	ldrh	r3, [r4, #12]
 8000b7a:	bf15      	itete	ne
 8000b7c:	6560      	strne	r0, [r4, #84]	; 0x54
 8000b7e:	f423 5380 	biceq.w	r3, r3, #4096	; 0x1000
 8000b82:	f443 5380 	orrne.w	r3, r3, #4096	; 0x1000
 8000b86:	81a3      	strheq	r3, [r4, #12]
 8000b88:	bf18      	it	ne
 8000b8a:	81a3      	strhne	r3, [r4, #12]
 8000b8c:	bd10      	pop	{r4, pc}

08000b8e <__sclose>:
 8000b8e:	f9b1 100e 	ldrsh.w	r1, [r1, #14]
 8000b92:	f000 b813 	b.w	8000bbc <_close_r>
	...

08000b98 <_write_r>:
 8000b98:	b538      	push	{r3, r4, r5, lr}
 8000b9a:	4d07      	ldr	r5, [pc, #28]	; (8000bb8 <_write_r+0x20>)
 8000b9c:	4604      	mov	r4, r0
 8000b9e:	4608      	mov	r0, r1
 8000ba0:	4611      	mov	r1, r2
 8000ba2:	2200      	movs	r2, #0
 8000ba4:	602a      	str	r2, [r5, #0]
 8000ba6:	461a      	mov	r2, r3
 8000ba8:	f7ff fc84 	bl	80004b4 <_write>
 8000bac:	1c43      	adds	r3, r0, #1
 8000bae:	d102      	bne.n	8000bb6 <_write_r+0x1e>
 8000bb0:	682b      	ldr	r3, [r5, #0]
 8000bb2:	b103      	cbz	r3, 8000bb6 <_write_r+0x1e>
 8000bb4:	6023      	str	r3, [r4, #0]
 8000bb6:	bd38      	pop	{r3, r4, r5, pc}
 8000bb8:	2000014c 	.word	0x2000014c

08000bbc <_close_r>:
 8000bbc:	b538      	push	{r3, r4, r5, lr}
 8000bbe:	4d06      	ldr	r5, [pc, #24]	; (8000bd8 <_close_r+0x1c>)
 8000bc0:	2300      	movs	r3, #0
 8000bc2:	4604      	mov	r4, r0
 8000bc4:	4608      	mov	r0, r1
 8000bc6:	602b      	str	r3, [r5, #0]
 8000bc8:	f7ff fca2 	bl	8000510 <_close>
 8000bcc:	1c43      	adds	r3, r0, #1
 8000bce:	d102      	bne.n	8000bd6 <_close_r+0x1a>
 8000bd0:	682b      	ldr	r3, [r5, #0]
 8000bd2:	b103      	cbz	r3, 8000bd6 <_close_r+0x1a>
 8000bd4:	6023      	str	r3, [r4, #0]
 8000bd6:	bd38      	pop	{r3, r4, r5, pc}
 8000bd8:	2000014c 	.word	0x2000014c

08000bdc <__sflush_r>:
 8000bdc:	898a      	ldrh	r2, [r1, #12]
 8000bde:	e92d 41f0 	stmdb	sp!, {r4, r5, r6, r7, r8, lr}
 8000be2:	4605      	mov	r5, r0
 8000be4:	0710      	lsls	r0, r2, #28
 8000be6:	460c      	mov	r4, r1
 8000be8:	d458      	bmi.n	8000c9c <__sflush_r+0xc0>
 8000bea:	684b      	ldr	r3, [r1, #4]
 8000bec:	2b00      	cmp	r3, #0
 8000bee:	dc05      	bgt.n	8000bfc <__sflush_r+0x20>
 8000bf0:	6c0b      	ldr	r3, [r1, #64]	; 0x40
 8000bf2:	2b00      	cmp	r3, #0
 8000bf4:	dc02      	bgt.n	8000bfc <__sflush_r+0x20>
 8000bf6:	2000      	movs	r0, #0
 8000bf8:	e8bd 81f0 	ldmia.w	sp!, {r4, r5, r6, r7, r8, pc}
 8000bfc:	6ae6      	ldr	r6, [r4, #44]	; 0x2c
 8000bfe:	2e00      	cmp	r6, #0
 8000c00:	d0f9      	beq.n	8000bf6 <__sflush_r+0x1a>
 8000c02:	2300      	movs	r3, #0
 8000c04:	f412 5280 	ands.w	r2, r2, #4096	; 0x1000
 8000c08:	682f      	ldr	r7, [r5, #0]
 8000c0a:	602b      	str	r3, [r5, #0]
 8000c0c:	d032      	beq.n	8000c74 <__sflush_r+0x98>
 8000c0e:	6d60      	ldr	r0, [r4, #84]	; 0x54
 8000c10:	89a3      	ldrh	r3, [r4, #12]
 8000c12:	075a      	lsls	r2, r3, #29
 8000c14:	d505      	bpl.n	8000c22 <__sflush_r+0x46>
 8000c16:	6863      	ldr	r3, [r4, #4]
 8000c18:	1ac0      	subs	r0, r0, r3
 8000c1a:	6b63      	ldr	r3, [r4, #52]	; 0x34
 8000c1c:	b10b      	cbz	r3, 8000c22 <__sflush_r+0x46>
 8000c1e:	6c23      	ldr	r3, [r4, #64]	; 0x40
 8000c20:	1ac0      	subs	r0, r0, r3
 8000c22:	2300      	movs	r3, #0
 8000c24:	4602      	mov	r2, r0
 8000c26:	6ae6      	ldr	r6, [r4, #44]	; 0x2c
 8000c28:	6a21      	ldr	r1, [r4, #32]
 8000c2a:	4628      	mov	r0, r5
 8000c2c:	47b0      	blx	r6
 8000c2e:	1c43      	adds	r3, r0, #1
 8000c30:	89a3      	ldrh	r3, [r4, #12]
 8000c32:	d106      	bne.n	8000c42 <__sflush_r+0x66>
 8000c34:	6829      	ldr	r1, [r5, #0]
 8000c36:	291d      	cmp	r1, #29
 8000c38:	d82c      	bhi.n	8000c94 <__sflush_r+0xb8>
 8000c3a:	4a2a      	ldr	r2, [pc, #168]	; (8000ce4 <__sflush_r+0x108>)
 8000c3c:	40ca      	lsrs	r2, r1
 8000c3e:	07d6      	lsls	r6, r2, #31
 8000c40:	d528      	bpl.n	8000c94 <__sflush_r+0xb8>
 8000c42:	2200      	movs	r2, #0
 8000c44:	6062      	str	r2, [r4, #4]
 8000c46:	04d9      	lsls	r1, r3, #19
 8000c48:	6922      	ldr	r2, [r4, #16]
 8000c4a:	6022      	str	r2, [r4, #0]
 8000c4c:	d504      	bpl.n	8000c58 <__sflush_r+0x7c>
 8000c4e:	1c42      	adds	r2, r0, #1
 8000c50:	d101      	bne.n	8000c56 <__sflush_r+0x7a>
 8000c52:	682b      	ldr	r3, [r5, #0]
 8000c54:	b903      	cbnz	r3, 8000c58 <__sflush_r+0x7c>
 8000c56:	6560      	str	r0, [r4, #84]	; 0x54
 8000c58:	6b61      	ldr	r1, [r4, #52]	; 0x34
 8000c5a:	602f      	str	r7, [r5, #0]
 8000c5c:	2900      	cmp	r1, #0
 8000c5e:	d0ca      	beq.n	8000bf6 <__sflush_r+0x1a>
 8000c60:	f104 0344 	add.w	r3, r4, #68	; 0x44
 8000c64:	4299      	cmp	r1, r3
 8000c66:	d002      	beq.n	8000c6e <__sflush_r+0x92>
 8000c68:	4628      	mov	r0, r5
 8000c6a:	f000 f897 	bl	8000d9c <_free_r>
 8000c6e:	2000      	movs	r0, #0
 8000c70:	6360      	str	r0, [r4, #52]	; 0x34
 8000c72:	e7c1      	b.n	8000bf8 <__sflush_r+0x1c>
 8000c74:	6a21      	ldr	r1, [r4, #32]
 8000c76:	2301      	movs	r3, #1
 8000c78:	4628      	mov	r0, r5
 8000c7a:	47b0      	blx	r6
 8000c7c:	1c41      	adds	r1, r0, #1
 8000c7e:	d1c7      	bne.n	8000c10 <__sflush_r+0x34>
 8000c80:	682b      	ldr	r3, [r5, #0]
 8000c82:	2b00      	cmp	r3, #0
 8000c84:	d0c4      	beq.n	8000c10 <__sflush_r+0x34>
 8000c86:	2b1d      	cmp	r3, #29
 8000c88:	d001      	beq.n	8000c8e <__sflush_r+0xb2>
 8000c8a:	2b16      	cmp	r3, #22
 8000c8c:	d101      	bne.n	8000c92 <__sflush_r+0xb6>
 8000c8e:	602f      	str	r7, [r5, #0]
 8000c90:	e7b1      	b.n	8000bf6 <__sflush_r+0x1a>
 8000c92:	89a3      	ldrh	r3, [r4, #12]
 8000c94:	f043 0340 	orr.w	r3, r3, #64	; 0x40
 8000c98:	81a3      	strh	r3, [r4, #12]
 8000c9a:	e7ad      	b.n	8000bf8 <__sflush_r+0x1c>
 8000c9c:	690f      	ldr	r7, [r1, #16]
 8000c9e:	2f00      	cmp	r7, #0
 8000ca0:	d0a9      	beq.n	8000bf6 <__sflush_r+0x1a>
 8000ca2:	0793      	lsls	r3, r2, #30
 8000ca4:	680e      	ldr	r6, [r1, #0]
 8000ca6:	bf08      	it	eq
 8000ca8:	694b      	ldreq	r3, [r1, #20]
 8000caa:	600f      	str	r7, [r1, #0]
 8000cac:	bf18      	it	ne
 8000cae:	2300      	movne	r3, #0
 8000cb0:	eba6 0807 	sub.w	r8, r6, r7
 8000cb4:	608b      	str	r3, [r1, #8]
 8000cb6:	f1b8 0f00 	cmp.w	r8, #0
 8000cba:	dd9c      	ble.n	8000bf6 <__sflush_r+0x1a>
 8000cbc:	6a21      	ldr	r1, [r4, #32]
 8000cbe:	6aa6      	ldr	r6, [r4, #40]	; 0x28
 8000cc0:	4643      	mov	r3, r8
 8000cc2:	463a      	mov	r2, r7
 8000cc4:	4628      	mov	r0, r5
 8000cc6:	47b0      	blx	r6
 8000cc8:	2800      	cmp	r0, #0
 8000cca:	dc06      	bgt.n	8000cda <__sflush_r+0xfe>
 8000ccc:	89a3      	ldrh	r3, [r4, #12]
 8000cce:	f043 0340 	orr.w	r3, r3, #64	; 0x40
 8000cd2:	81a3      	strh	r3, [r4, #12]
 8000cd4:	f04f 30ff 	mov.w	r0, #4294967295
 8000cd8:	e78e      	b.n	8000bf8 <__sflush_r+0x1c>
 8000cda:	4407      	add	r7, r0
 8000cdc:	eba8 0800 	sub.w	r8, r8, r0
 8000ce0:	e7e9      	b.n	8000cb6 <__sflush_r+0xda>
 8000ce2:	bf00      	nop
 8000ce4:	20400001 	.word	0x20400001

08000ce8 <_fflush_r>:
 8000ce8:	b538      	push	{r3, r4, r5, lr}
 8000cea:	690b      	ldr	r3, [r1, #16]
 8000cec:	4605      	mov	r5, r0
 8000cee:	460c      	mov	r4, r1
 8000cf0:	b913      	cbnz	r3, 8000cf8 <_fflush_r+0x10>
 8000cf2:	2500      	movs	r5, #0
 8000cf4:	4628      	mov	r0, r5
 8000cf6:	bd38      	pop	{r3, r4, r5, pc}
 8000cf8:	b118      	cbz	r0, 8000d02 <_fflush_r+0x1a>
 8000cfa:	6983      	ldr	r3, [r0, #24]
 8000cfc:	b90b      	cbnz	r3, 8000d02 <_fflush_r+0x1a>
 8000cfe:	f7ff fdfd 	bl	80008fc <__sinit>
 8000d02:	4b14      	ldr	r3, [pc, #80]	; (8000d54 <_fflush_r+0x6c>)
 8000d04:	429c      	cmp	r4, r3
 8000d06:	d11b      	bne.n	8000d40 <_fflush_r+0x58>
 8000d08:	686c      	ldr	r4, [r5, #4]
 8000d0a:	f9b4 300c 	ldrsh.w	r3, [r4, #12]
 8000d0e:	2b00      	cmp	r3, #0
 8000d10:	d0ef      	beq.n	8000cf2 <_fflush_r+0xa>
 8000d12:	6e62      	ldr	r2, [r4, #100]	; 0x64
 8000d14:	07d0      	lsls	r0, r2, #31
 8000d16:	d404      	bmi.n	8000d22 <_fflush_r+0x3a>
 8000d18:	0599      	lsls	r1, r3, #22
 8000d1a:	d402      	bmi.n	8000d22 <_fflush_r+0x3a>
 8000d1c:	6da0      	ldr	r0, [r4, #88]	; 0x58
 8000d1e:	f7ff fe8b 	bl	8000a38 <__retarget_lock_acquire_recursive>
 8000d22:	4628      	mov	r0, r5
 8000d24:	4621      	mov	r1, r4
 8000d26:	f7ff ff59 	bl	8000bdc <__sflush_r>
 8000d2a:	6e63      	ldr	r3, [r4, #100]	; 0x64
 8000d2c:	07da      	lsls	r2, r3, #31
 8000d2e:	4605      	mov	r5, r0
 8000d30:	d4e0      	bmi.n	8000cf4 <_fflush_r+0xc>
 8000d32:	89a3      	ldrh	r3, [r4, #12]
 8000d34:	059b      	lsls	r3, r3, #22
 8000d36:	d4dd      	bmi.n	8000cf4 <_fflush_r+0xc>
 8000d38:	6da0      	ldr	r0, [r4, #88]	; 0x58
 8000d3a:	f7ff fe7e 	bl	8000a3a <__retarget_lock_release_recursive>
 8000d3e:	e7d9      	b.n	8000cf4 <_fflush_r+0xc>
 8000d40:	4b05      	ldr	r3, [pc, #20]	; (8000d58 <_fflush_r+0x70>)
 8000d42:	429c      	cmp	r4, r3
 8000d44:	d101      	bne.n	8000d4a <_fflush_r+0x62>
 8000d46:	68ac      	ldr	r4, [r5, #8]
 8000d48:	e7df      	b.n	8000d0a <_fflush_r+0x22>
 8000d4a:	4b04      	ldr	r3, [pc, #16]	; (8000d5c <_fflush_r+0x74>)
 8000d4c:	429c      	cmp	r4, r3
 8000d4e:	bf08      	it	eq
 8000d50:	68ec      	ldreq	r4, [r5, #12]
 8000d52:	e7da      	b.n	8000d0a <_fflush_r+0x22>
 8000d54:	08000eb4 	.word	0x08000eb4
 8000d58:	08000ed4 	.word	0x08000ed4
 8000d5c:	08000e94 	.word	0x08000e94

08000d60 <_lseek_r>:
 8000d60:	b538      	push	{r3, r4, r5, lr}
 8000d62:	4d07      	ldr	r5, [pc, #28]	; (8000d80 <_lseek_r+0x20>)
 8000d64:	4604      	mov	r4, r0
 8000d66:	4608      	mov	r0, r1
 8000d68:	4611      	mov	r1, r2
 8000d6a:	2200      	movs	r2, #0
 8000d6c:	602a      	str	r2, [r5, #0]
 8000d6e:	461a      	mov	r2, r3
 8000d70:	f7ff fb8e 	bl	8000490 <_lseek>
 8000d74:	1c43      	adds	r3, r0, #1
 8000d76:	d102      	bne.n	8000d7e <_lseek_r+0x1e>
 8000d78:	682b      	ldr	r3, [r5, #0]
 8000d7a:	b103      	cbz	r3, 8000d7e <_lseek_r+0x1e>
 8000d7c:	6023      	str	r3, [r4, #0]
 8000d7e:	bd38      	pop	{r3, r4, r5, pc}
 8000d80:	2000014c 	.word	0x2000014c

08000d84 <__malloc_lock>:
 8000d84:	4801      	ldr	r0, [pc, #4]	; (8000d8c <__malloc_lock+0x8>)
 8000d86:	f7ff be57 	b.w	8000a38 <__retarget_lock_acquire_recursive>
 8000d8a:	bf00      	nop
 8000d8c:	20000144 	.word	0x20000144

08000d90 <__malloc_unlock>:
 8000d90:	4801      	ldr	r0, [pc, #4]	; (8000d98 <__malloc_unlock+0x8>)
 8000d92:	f7ff be52 	b.w	8000a3a <__retarget_lock_release_recursive>
 8000d96:	bf00      	nop
 8000d98:	20000144 	.word	0x20000144

08000d9c <_free_r>:
 8000d9c:	b538      	push	{r3, r4, r5, lr}
 8000d9e:	4605      	mov	r5, r0
 8000da0:	2900      	cmp	r1, #0
 8000da2:	d045      	beq.n	8000e30 <_free_r+0x94>
 8000da4:	f851 3c04 	ldr.w	r3, [r1, #-4]
 8000da8:	1f0c      	subs	r4, r1, #4
 8000daa:	2b00      	cmp	r3, #0
 8000dac:	bfb8      	it	lt
 8000dae:	18e4      	addlt	r4, r4, r3
 8000db0:	f7ff ffe8 	bl	8000d84 <__malloc_lock>
 8000db4:	4a1f      	ldr	r2, [pc, #124]	; (8000e34 <_free_r+0x98>)
 8000db6:	6813      	ldr	r3, [r2, #0]
 8000db8:	4610      	mov	r0, r2
 8000dba:	b933      	cbnz	r3, 8000dca <_free_r+0x2e>
 8000dbc:	6063      	str	r3, [r4, #4]
 8000dbe:	6014      	str	r4, [r2, #0]
 8000dc0:	4628      	mov	r0, r5
 8000dc2:	e8bd 4038 	ldmia.w	sp!, {r3, r4, r5, lr}
 8000dc6:	f7ff bfe3 	b.w	8000d90 <__malloc_unlock>
 8000dca:	42a3      	cmp	r3, r4
 8000dcc:	d90b      	bls.n	8000de6 <_free_r+0x4a>
 8000dce:	6821      	ldr	r1, [r4, #0]
 8000dd0:	1862      	adds	r2, r4, r1
 8000dd2:	4293      	cmp	r3, r2
 8000dd4:	bf04      	itt	eq
 8000dd6:	681a      	ldreq	r2, [r3, #0]
 8000dd8:	685b      	ldreq	r3, [r3, #4]
 8000dda:	6063      	str	r3, [r4, #4]
 8000ddc:	bf04      	itt	eq
 8000dde:	1852      	addeq	r2, r2, r1
 8000de0:	6022      	streq	r2, [r4, #0]
 8000de2:	6004      	str	r4, [r0, #0]
 8000de4:	e7ec      	b.n	8000dc0 <_free_r+0x24>
 8000de6:	461a      	mov	r2, r3
 8000de8:	685b      	ldr	r3, [r3, #4]
 8000dea:	b10b      	cbz	r3, 8000df0 <_free_r+0x54>
 8000dec:	42a3      	cmp	r3, r4
 8000dee:	d9fa      	bls.n	8000de6 <_free_r+0x4a>
 8000df0:	6811      	ldr	r1, [r2, #0]
 8000df2:	1850      	adds	r0, r2, r1
 8000df4:	42a0      	cmp	r0, r4
 8000df6:	d10b      	bne.n	8000e10 <_free_r+0x74>
 8000df8:	6820      	ldr	r0, [r4, #0]
 8000dfa:	4401      	add	r1, r0
 8000dfc:	1850      	adds	r0, r2, r1
 8000dfe:	4283      	cmp	r3, r0
 8000e00:	6011      	str	r1, [r2, #0]
 8000e02:	d1dd      	bne.n	8000dc0 <_free_r+0x24>
 8000e04:	6818      	ldr	r0, [r3, #0]
 8000e06:	685b      	ldr	r3, [r3, #4]
 8000e08:	6053      	str	r3, [r2, #4]
 8000e0a:	4401      	add	r1, r0
 8000e0c:	6011      	str	r1, [r2, #0]
 8000e0e:	e7d7      	b.n	8000dc0 <_free_r+0x24>
 8000e10:	d902      	bls.n	8000e18 <_free_r+0x7c>
 8000e12:	230c      	movs	r3, #12
 8000e14:	602b      	str	r3, [r5, #0]
 8000e16:	e7d3      	b.n	8000dc0 <_free_r+0x24>
 8000e18:	6820      	ldr	r0, [r4, #0]
 8000e1a:	1821      	adds	r1, r4, r0
 8000e1c:	428b      	cmp	r3, r1
 8000e1e:	bf04      	itt	eq
 8000e20:	6819      	ldreq	r1, [r3, #0]
 8000e22:	685b      	ldreq	r3, [r3, #4]
 8000e24:	6063      	str	r3, [r4, #4]
 8000e26:	bf04      	itt	eq
 8000e28:	1809      	addeq	r1, r1, r0
 8000e2a:	6021      	streq	r1, [r4, #0]
 8000e2c:	6054      	str	r4, [r2, #4]
 8000e2e:	e7c7      	b.n	8000dc0 <_free_r+0x24>
 8000e30:	bd38      	pop	{r3, r4, r5, pc}
 8000e32:	bf00      	nop
 8000e34:	20000138 	.word	0x20000138

08000e38 <_read_r>:
 8000e38:	b538      	push	{r3, r4, r5, lr}
 8000e3a:	4d07      	ldr	r5, [pc, #28]	; (8000e58 <_read_r+0x20>)
 8000e3c:	4604      	mov	r4, r0
 8000e3e:	4608      	mov	r0, r1
 8000e40:	4611      	mov	r1, r2
 8000e42:	2200      	movs	r2, #0
 8000e44:	602a      	str	r2, [r5, #0]
 8000e46:	461a      	mov	r2, r3
 8000e48:	f7ff facc 	bl	80003e4 <_read>
 8000e4c:	1c43      	adds	r3, r0, #1
 8000e4e:	d102      	bne.n	8000e56 <_read_r+0x1e>
 8000e50:	682b      	ldr	r3, [r5, #0]
 8000e52:	b103      	cbz	r3, 8000e56 <_read_r+0x1e>
 8000e54:	6023      	str	r3, [r4, #0]
 8000e56:	bd38      	pop	{r3, r4, r5, pc}
 8000e58:	2000014c 	.word	0x2000014c

08000e5c <_init>:
 8000e5c:	b5f8      	push	{r3, r4, r5, r6, r7, lr}
 8000e5e:	bf00      	nop
 8000e60:	bcf8      	pop	{r3, r4, r5, r6, r7}
 8000e62:	bc08      	pop	{r3}
 8000e64:	469e      	mov	lr, r3
 8000e66:	4770      	bx	lr

08000e68 <_fini>:
 8000e68:	b5f8      	push	{r3, r4, r5, r6, r7, lr}
 8000e6a:	bf00      	nop
 8000e6c:	bcf8      	pop	{r3, r4, r5, r6, r7}
 8000e6e:	bc08      	pop	{r3}
 8000e70:	469e      	mov	lr, r3
 8000e72:	4770      	bx	lr
